_ZN10MetaModule10Filesystem13is_local_pathESt17basic_string_viewIcSt11char_traitsIcEE
_ZN10MetaModule10Filesystem23translate_path_to_localB5cxx11ESt17basic_string_viewIcSt11char_traitsIcEES4_j
_ZN10MetaModule11AsyncThread10is_enabledEv
_ZN10MetaModule11AsyncThread4stopEv
_ZN10MetaModule11AsyncThread5startEO13CallbackSizedILj8EE
_ZN10MetaModule11AsyncThread5startEv
_ZN10MetaModule11AsyncThread8run_onceEv
_ZN10MetaModule11AsyncThreadC1EP13CoreProcessor
_ZN10MetaModule11AsyncThreadC1EP13CoreProcessorO13CallbackSizedILj8EE
_ZN10MetaModule11AsyncThreadC2EP13CoreProcessor
_ZN10MetaModule11AsyncThreadC2EP13CoreProcessorO13CallbackSizedILj8EE
_ZN10MetaModule11AsyncThreadD1Ev
_ZN10MetaModule11AsyncThreadD2Ev
_ZN10MetaModule13WavFileStream10pop_sampleEv
_ZN10MetaModule13WavFileStream18seek_frame_in_fileEm
_ZN10MetaModule13WavFileStream21read_frames_from_fileEi
_ZN10MetaModule13WavFileStream21read_frames_from_fileEv
_ZN10MetaModule13WavFileStream23reset_playback_to_frameEm
_ZN10MetaModule13WavFileStream4loadESt17basic_string_viewIcSt11char_traitsIcEE
_ZN10MetaModule13WavFileStream6resizeEj
_ZN10MetaModule13WavFileStream6unloadEv
_ZN10MetaModule13WavFileStreamC1Ej
_ZN10MetaModule13WavFileStreamC2Ej
_ZN10MetaModule13WavFileStreamD1Ev
_ZN10MetaModule13WavFileStreamD2Ev
_ZN10MetaModule14BlockResampler16set_input_strideEm
_ZN10MetaModule14BlockResampler17set_output_strideEm
_ZN10MetaModule14BlockResampler21set_samplerate_in_outEmm
_ZN10MetaModule14BlockResampler5flushEv
_ZN10MetaModule14BlockResampler7processEmSt4spanIKfLj4294967295EES1_IfLj4294967295EE
_ZN10MetaModule14BlockResamplerC1Em
_ZN10MetaModule14BlockResamplerC2Em
_ZN10MetaModule14BlockResamplerD1Ev
_ZN10MetaModule14BlockResamplerD2Ev
_ZN10MetaModule15StreamResampler12process_monoEO13FunctionSizedILj8EFfvEE
_ZN10MetaModule15StreamResampler14process_stereoEO13FunctionSizedILj8EFfvEE
_ZN10MetaModule15StreamResampler16set_num_channelsEj
_ZN10MetaModule15StreamResampler22set_sample_rate_in_outEmm
_ZN10MetaModule15StreamResampler5flushEv
_ZN10MetaModule15StreamResampler7processEO13FunctionSizedILj8EFfvEESt4spanIfLj4294967295EE
_ZN10MetaModule15StreamResamplerC1Em
_ZN10MetaModule15StreamResamplerC2Em
_ZN10MetaModule15register_moduleESt17basic_string_viewIcSt11char_traitsIcEES3_St8functionIFSt10unique_ptrI13CoreProcessorSt14default_deleteIS6_EEvEERKNS_14ModuleInfoViewES3_
_ZN10MetaModule24StreamingWaveformDisplay10set_x_zoomEf
_ZN10MetaModule24StreamingWaveformDisplay11draw_sampleEf
_ZN10MetaModule24StreamingWaveformDisplay14set_wave_colorESt4spanIKfLj3EE
_ZN10MetaModule24StreamingWaveformDisplay14set_wave_colorEhhh
_ZN10MetaModule24StreamingWaveformDisplay16set_bar_bg_colorESt4spanIKfLj3EE
_ZN10MetaModule24StreamingWaveformDisplay16set_bar_bg_colorEhhh
_ZN10MetaModule24StreamingWaveformDisplay16set_bar_fg_colorESt4spanIKfLj3EE
_ZN10MetaModule24StreamingWaveformDisplay16set_bar_fg_colorEhhh
_ZN10MetaModule24StreamingWaveformDisplay16set_cursor_widthEj
_ZN10MetaModule24StreamingWaveformDisplay17set_bar_begin_endEff
_ZN10MetaModule24StreamingWaveformDisplay19set_cursor_positionEf
_ZN10MetaModule24StreamingWaveformDisplay20draw_graphic_displayEv
_ZN10MetaModule24StreamingWaveformDisplay20hide_graphic_displayEv
_ZN10MetaModule24StreamingWaveformDisplay20show_graphic_displayESt4spanImLj4294967295EEjP9_lv_obj_t
_ZN10MetaModule24StreamingWaveformDisplay4syncEv
_ZN10MetaModule24StreamingWaveformDisplayC1Eff
_ZN10MetaModule24StreamingWaveformDisplayC2Eff
_ZN10MetaModule24StreamingWaveformDisplayD1Ev
_ZN10MetaModule24StreamingWaveformDisplayD2Ev
_ZN10MetaModule3Gui11notify_userESt17basic_string_viewIcSt11char_traitsIcEEi
_ZN10MetaModule4Midi14toPrettyStringB5cxx11ESt4spanIhLj3EE
_ZN10MetaModule4Midi23toPrettyMultilineStringB5cxx11ESt4spanIhLj3EE
_ZN10MetaModule5Audio14get_block_sizeEv
_ZN10MetaModule5Patch10get_volumeEv
_ZN10MetaModule5Patch19mark_patch_modifiedEv
_ZN10MetaModule5Patch7get_dirB5cxx11Ev
_ZN10MetaModule5Patch8get_pathB5cxx11Ev
_ZN10MetaModule6System11free_memoryEv
_ZN10MetaModule6System12total_memoryEv
_ZN10MetaModule6System15hardware_randomEv
_ZN10MetaModule6System21hardware_random_readyEv
_ZN10MetaModule6System6randomEv
_ZN10MetaModule6System8delay_msEm
_ZN10MetaModule6System9get_ticksEv
_ZNK10MetaModule13WavFileStream12num_channelsEv
_ZNK10MetaModule13WavFileStream12total_framesEv
_ZNK10MetaModule13WavFileStream13buffer_framesEv
_ZNK10MetaModule13WavFileStream13is_file_errorEv
_ZNK10MetaModule13WavFileStream14buffer_samplesEv
_ZNK10MetaModule13WavFileStream14sample_secondsEv
_ZNK10MetaModule13WavFileStream15wav_sample_rateEv
_ZNK10MetaModule13WavFileStream16frames_availableEv
_ZNK10MetaModule13WavFileStream17samples_availableEv
_ZNK10MetaModule13WavFileStream21first_frame_in_bufferEv
_ZNK10MetaModule13WavFileStream21latest_buffered_frameEv
_ZNK10MetaModule13WavFileStream22current_playback_frameEv
_ZNK10MetaModule13WavFileStream6is_eofEv
_ZNK10MetaModule13WavFileStream8max_sizeEv
_ZNK10MetaModule13WavFileStream9is_loadedEv
_ZNK10MetaModule14BlockResampler5ratioEv
_ZNK10MetaModule15StreamResampler14resample_ratioEj
__aeabi_atexit
__assert_func
__atexit
__atexit_recursive_mutex
__cxa_pure_virtual
_calloc_r
_close_r
_exit
_fini
_free_r
_fstat_r
_getpid_r
_gettimeofday
_gettimeofday_r
_impure_data
_impure_ptr
_isatty_r
_kill_r
_lseek_r
_malloc_r
_open_r
_read_r
_realloc_r
_sbrk_r
_times_r
_write_r
abort
alphasort
calloc
closedir
dirfd
drwav_alaw_to_f32
drwav_alaw_to_s16
drwav_alaw_to_s32
drwav_bytes_to_f32
drwav_bytes_to_s16
drwav_bytes_to_s32
drwav_bytes_to_s64
drwav_bytes_to_u16
drwav_bytes_to_u32
drwav_bytes_to_u64
drwav_f32_to_s16
drwav_f32_to_s32
drwav_f64_to_f32
drwav_f64_to_s16
drwav_f64_to_s32
drwav_fmt_get_format
drwav_fourcc_equal
drwav_free
drwav_get_cursor_in_pcm_frames
drwav_get_length_in_pcm_frames
drwav_guid_equal
drwav_init
drwav_init_ex
drwav_init_file
drwav_init_file_ex
drwav_init_file_ex_w
drwav_init_file_w
drwav_init_file_with_metadata
drwav_init_file_with_metadata_w
drwav_init_file_write
drwav_init_file_write_sequential
drwav_init_file_write_sequential_pcm_frames
drwav_init_file_write_sequential_pcm_frames_w
drwav_init_file_write_sequential_w
drwav_init_file_write_w
drwav_init_memory
drwav_init_memory_ex
drwav_init_memory_with_metadata
drwav_init_memory_write
drwav_init_memory_write_sequential
drwav_init_memory_write_sequential_pcm_frames
drwav_init_with_metadata
drwav_init_write
drwav_init_write_sequential
drwav_init_write_sequential_pcm_frames
drwav_init_write_with_metadata
drwav_mulaw_to_f32
drwav_mulaw_to_s16
drwav_mulaw_to_s32
drwav_open_and_read_pcm_frames_f32
drwav_open_and_read_pcm_frames_s16
drwav_open_and_read_pcm_frames_s32
drwav_open_file_and_read_pcm_frames_f32
drwav_open_file_and_read_pcm_frames_f32_w
drwav_open_file_and_read_pcm_frames_s16
drwav_open_file_and_read_pcm_frames_s16_w
drwav_open_file_and_read_pcm_frames_s32
drwav_open_file_and_read_pcm_frames_s32_w
drwav_open_memory_and_read_pcm_frames_f32
drwav_open_memory_and_read_pcm_frames_s16
drwav_open_memory_and_read_pcm_frames_s32
drwav_read_pcm_frames
drwav_read_pcm_frames_be
drwav_read_pcm_frames_f32
drwav_read_pcm_frames_f32be
drwav_read_pcm_frames_f32le
drwav_read_pcm_frames_le
drwav_read_pcm_frames_s16
drwav_read_pcm_frames_s16be
drwav_read_pcm_frames_s16le
drwav_read_pcm_frames_s32
drwav_read_pcm_frames_s32be
drwav_read_pcm_frames_s32le
drwav_read_raw
drwav_s16_to_f32
drwav_s16_to_s32
drwav_s24_to_f32
drwav_s24_to_s16
drwav_s24_to_s32
drwav_s32_to_f32
drwav_s32_to_s16
drwav_seek_to_pcm_frame
drwav_take_ownership_of_metadata
drwav_target_write_size_bytes
drwav_u8_to_f32
drwav_u8_to_s16
drwav_u8_to_s32
drwav_uninit
drwav_version
drwav_version_string
drwav_write_pcm_frames
drwav_write_pcm_frames_be
drwav_write_pcm_frames_le
drwav_write_raw
expm1l
fdopendir
free
gettimeofday
log1pl
malloc
memalign
opendir
readdir
readdir_r
realloc
rewinddir
scandir
seekdir
stat
telldir
